; Function Attrs: mustprogress uwtable
define hidden void @_ZN19OpenColorIO_v2_5dev35Renderer_ACES_TONESCALE_COMPRESS_20C2ERSt10shared_ptrIKNS_19FixedFunctionOpDataEE(ptr noundef nonnull writeonly align 8 captures(none) dereferenceable(1628) initializes((0, 9), (12, 1628)) %0, ptr noundef nonnull readonly align 8 captures(none) dereferenceable(16) %1) unnamed_addr #9 align 2 personality ptr @__gxx_personality_v0 {
  %3 = alloca %"struct.OpenColorIO_v2_5dev::ACES2::JMhParams", align 4
  %4 = alloca %"struct.OpenColorIO_v2_5dev::ACES2::ToneScaleParams", align 4
  %5 = alloca %"struct.OpenColorIO_v2_5dev::ACES2::ChromaCompressParams", align 4
  store ptr getelementptr inbounds nuw inrange(-16, 48) (i8, ptr @_ZTVN19OpenColorIO_v2_5dev35Renderer_ACES_TONESCALE_COMPRESS_20E, i64 16), ptr %0, align 8, !tbaa !3
  %6 = load ptr, ptr %1, align 8, !tbaa !33
  %7 = getelementptr inbounds nuw i8, ptr %6, i64 168
  %8 = load i32, ptr %7, align 8, !tbaa !57
  %9 = icmp eq i32 %8, 32
  %10 = getelementptr inbounds nuw i8, ptr %0, i64 8
  %11 = zext i1 %9 to i8
  store i8 %11, ptr %10, align 8, !tbaa !106
  %12 = getelementptr inbounds nuw i8, ptr %6, i64 176
  %13 = load ptr, ptr %12, align 8, !tbaa !39
  %14 = load double, ptr %13, align 8, !tbaa !42
  %15 = fptrunc double %14 to float
  call void @llvm.lifetime.start.p0(i64 112, ptr nonnull %3) #28
  call void @_ZN19OpenColorIO_v2_5dev5ACES214init_JMhParamsERKNS_9PrimariesE(ptr dead_on_unwind nonnull writable sret(%"struct.OpenColorIO_v2_5dev::ACES2::JMhParams") align 4 %3, ptr noundef nonnull align 8 dereferenceable(64) @_ZN19OpenColorIO_v2_5dev8ACES_AP09primariesE)
  %16 = getelementptr inbounds nuw i8, ptr %0, i64 12
  call void @llvm.memcpy.p0.p0.i64(ptr noundef nonnull align 4 dereferenceable(112) %16, ptr noundef nonnull align 4 dereferenceable(112) %3, i64 112, i1 false), !tbaa.struct !93
  call void @llvm.lifetime.end.p0(i64 112, ptr nonnull %3) #28
  call void @llvm.lifetime.start.p0(i64 32, ptr nonnull %4) #28
  call void @_ZN19OpenColorIO_v2_5dev5ACES220init_ToneScaleParamsEf(ptr dead_on_unwind nonnull writable sret(%"struct.OpenColorIO_v2_5dev::ACES2::ToneScaleParams") align 4 %4, float noundef %15)
  %17 = getelementptr inbounds nuw i8, ptr %0, i64 124
  call void @llvm.memcpy.p0.p0.i64(ptr noundef nonnull align 4 dereferenceable(32) %17, ptr noundef nonnull align 4 dereferenceable(32) %4, i64 32, i1 false), !tbaa.struct !95
  call void @llvm.lifetime.end.p0(i64 32, ptr nonnull %4) #28
  call void @llvm.lifetime.start.p0(i64 1472, ptr nonnull %5) #28
  call void @_ZN19OpenColorIO_v2_5dev5ACES225init_ChromaCompressParamsEf(ptr dead_on_unwind nonnull writable sret(%"struct.OpenColorIO_v2_5dev::ACES2::ChromaCompressParams") align 4 %5, float noundef %15)
  %18 = getelementptr inbounds nuw i8, ptr %0, i64 156
  call void @llvm.memcpy.p0.p0.i64(ptr noundef nonnull align 4 dereferenceable(1472) %18, ptr noundef nonnull align 4 dereferenceable(1472) %5, i64 1472, i1 false), !tbaa.struct !96
  call void @llvm.lifetime.end.p0(i64 1472, ptr nonnull %5) #28
  ret void
}